target datalayout = "e-m:e-p270:32:32-p271:32:32-p272:64:64-i64:64-i128:128-f80:128-n8:16:32:64-S128"
target triple = "x86_64-pc-linux-gnu"

%struct.XLogRecData = type { ptr, ptr, i32 }

@.str.1 = private unnamed_addr constant [13 x i8] c"xloginsert.c\00", align 1
@max_rdatas = internal global i32 0, align 4
@rdatas = internal global ptr null, align 8
@num_rdatas = internal global i32 0, align 4
@mainrdata_len = internal global i64 0, align 8
@mainrdata_last = internal global ptr @mainrdata_head, align 8
@.str.5 = private unnamed_addr constant [18 x i8] c"too much WAL data\00", align 1
@.str.6 = private unnamed_addr constant [47 x i8] c"%d out of %d data segments are already in use.\00", align 1
@__func__.XLogRegisterData = private unnamed_addr constant [17 x i8] c"XLogRegisterData\00", align 1

; Function Attrs: nounwind uwtable
define dso_local void @XLogRegisterData(ptr noundef %0, i32 noundef %1) #0 {
  %3 = alloca ptr, align 8
  %4 = alloca i32, align 4
  %5 = alloca ptr, align 8
  store ptr %0, ptr %3, align 8
  store i32 %1, ptr %4, align 4
  call void @llvm.lifetime.start.p0(i64 8, ptr %5) #9
  %6 = load i32, ptr @num_rdatas, align 4
  %7 = load i32, ptr @max_rdatas, align 4
  %8 = icmp sge i32 %6, %7
  br i1 %8, label %9, label %23

9:                                                ; preds = %2
  br label %10

10:                                               ; preds = %9
  br i1 true, label %11, label %13

11:                                               ; preds = %10
  %12 = call zeroext i1 @errstart_cold(i32 noundef 21, ptr noundef null) #8
  br i1 %12, label %15, label %20

13:                                               ; preds = %10
  %14 = call zeroext i1 @errstart(i32 noundef 21, ptr noundef null)
  br i1 %14, label %15, label %20

15:                                               ; preds = %13, %11
  %16 = call i32 (ptr, ...) @errmsg_internal(ptr noundef @.str.5)
  %17 = load i32, ptr @num_rdatas, align 4
  %18 = load i32, ptr @max_rdatas, align 4
  %19 = call i32 (ptr, ...) @errdetail_internal(ptr noundef @.str.6, i32 noundef %17, i32 noundef %18)
  call void @errfinish(ptr noundef @.str.1, i32 noundef 374, ptr noundef @__func__.XLogRegisterData)
  br label %20

20:                                               ; preds = %15, %13, %11
  unreachable

21:                                               ; No predecessors!
  br label %22

22:                                               ; preds = %21
  br label %23

23:                                               ; preds = %22, %2
  %24 = load ptr, ptr @rdatas, align 8
  %25 = load i32, ptr @num_rdatas, align 4
  %26 = add i32 %25, 1
  store i32 %26, ptr @num_rdatas, align 4
  %27 = sext i32 %25 to i64
  %28 = getelementptr inbounds %struct.XLogRecData, ptr %24, i64 %27
  store ptr %28, ptr %5, align 8
  %29 = load ptr, ptr %3, align 8
  %30 = load ptr, ptr %5, align 8
  %31 = getelementptr inbounds nuw %struct.XLogRecData, ptr %30, i32 0, i32 1
  store ptr %29, ptr %31, align 8
  %32 = load i32, ptr %4, align 4
  %33 = load ptr, ptr %5, align 8
  %34 = getelementptr inbounds nuw %struct.XLogRecData, ptr %33, i32 0, i32 2
  store i32 %32, ptr %34, align 8
  %35 = load ptr, ptr %5, align 8
  %36 = load ptr, ptr @mainrdata_last, align 8
  %37 = getelementptr inbounds nuw %struct.XLogRecData, ptr %36, i32 0, i32 0
  store ptr %35, ptr %37, align 8
  %38 = load ptr, ptr %5, align 8
  store ptr %38, ptr @mainrdata_last, align 8
  %39 = load i32, ptr %4, align 4
  %40 = zext i32 %39 to i64
  %41 = load i64, ptr @mainrdata_len, align 8
  %42 = add i64 %41, %40
  store i64 %42, ptr @mainrdata_len, align 8
  call void @llvm.lifetime.end.p0(i64 8, ptr %5) #9
  ret void
}