; Function Attrs: nounwind uwtable
define dso_local void @XLogRegisterData(ptr noundef %0, i32 noundef %1) local_unnamed_addr #0 {
  %3 = load i32, ptr @num_rdatas, align 4
  %4 = load i32, ptr @max_rdatas, align 4
  %.not = icmp slt i32 %3, %4
  br i1 %.not, label %11, label %5

5:                                                ; preds = %2
  %6 = tail call zeroext i1 @errstart_cold(i32 noundef 21, ptr noundef null) #11
  tail call void @llvm.assume(i1 %6)
  %7 = tail call i32 (ptr, ...) @errmsg_internal(ptr noundef nonnull @.str.5) #10
  %8 = load i32, ptr @num_rdatas, align 4
  %9 = load i32, ptr @max_rdatas, align 4
  %10 = tail call i32 (ptr, ...) @errdetail_internal(ptr noundef nonnull @.str.6, i32 noundef %8, i32 noundef %9) #10
  tail call void @errfinish(ptr noundef nonnull @.str.1, i32 noundef 374, ptr noundef nonnull @__func__.XLogRegisterData) #10
  unreachable

11:                                               ; preds = %2
  %12 = load ptr, ptr @rdatas, align 8
  %13 = add nsw i32 %3, 1
  store i32 %13, ptr @num_rdatas, align 4
  %14 = sext i32 %3 to i64
  %15 = getelementptr inbounds %struct.XLogRecData, ptr %12, i64 %14
  %16 = getelementptr inbounds nuw i8, ptr %15, i64 8
  store ptr %0, ptr %16, align 8
  %17 = getelementptr inbounds nuw i8, ptr %15, i64 16
  store i32 %1, ptr %17, align 8
  %18 = load ptr, ptr @mainrdata_last, align 8
  store ptr %15, ptr %18, align 8
  store ptr %15, ptr @mainrdata_last, align 8
  %19 = zext i32 %1 to i64
  %20 = load i64, ptr @mainrdata_len, align 8
  %21 = add i64 %20, %19
  store i64 %21, ptr @mainrdata_len, align 8
  ret void
}